; ModuleID = '9/93.c'
source_filename = "9/93.c"
target datalayout = "e-m:e-p270:32:32-p271:32:32-p272:64:64-i64:64-f80:128-n8:16:32:64-S128"
target triple = "x86_64-pc-linux-gnu"

@.str = private unnamed_addr constant [3 x i8] c"%d\00", align 1
@.str.1 = private unnamed_addr constant [6 x i8] c"%s %d\00", align 1
@.str.2 = private unnamed_addr constant [4 x i8] c"%s\0A\00", align 1

; Function Attrs: noinline nounwind uwtable
define dso_local void @main() #0 {
  %1 = alloca i32, align 4
  %2 = alloca i32, align 4
  %3 = alloca i32, align 4
  %4 = alloca i32, align 4
  %5 = alloca [100 x i32], align 16
  %6 = alloca [10 x i8], align 1
  %7 = alloca [100 x [10 x i8]], align 16
  %8 = call i32 (i8*, ...) @__isoc99_scanf(i8* getelementptr inbounds ([3 x i8], [3 x i8]* @.str, i64 0, i64 0), i32* %1)
  store i32 0, i32* %4, align 4
  br label %9

9:                                                ; preds = %22, %0
  %10 = load i32, i32* %4, align 4
  %11 = load i32, i32* %1, align 4
  %12 = icmp slt i32 %10, %11
  br i1 %12, label %13, label %25

13:                                               ; preds = %9
  %14 = load i32, i32* %4, align 4
  %15 = sext i32 %14 to i64
  %16 = getelementptr inbounds [100 x [10 x i8]], [100 x [10 x i8]]* %7, i64 0, i64 %15
  %17 = getelementptr inbounds [10 x i8], [10 x i8]* %16, i64 0, i64 0
  %18 = load i32, i32* %4, align 4
  %19 = sext i32 %18 to i64
  %20 = getelementptr inbounds [100 x i32], [100 x i32]* %5, i64 0, i64 %19
  %21 = call i32 (i8*, ...) @__isoc99_scanf(i8* getelementptr inbounds ([6 x i8], [6 x i8]* @.str.1, i64 0, i64 0), i8* %17, i32* %20)
  br label %22

22:                                               ; preds = %13
  %23 = load i32, i32* %4, align 4
  %24 = add nsw i32 %23, 1
  store i32 %24, i32* %4, align 4
  br label %9

25:                                               ; preds = %9
  store i32 0, i32* %4, align 4
  br label %26

26:                                               ; preds = %99, %25
  %27 = load i32, i32* %4, align 4
  %28 = load i32, i32* %1, align 4
  %29 = icmp slt i32 %27, %28
  br i1 %29, label %30, label %102

30:                                               ; preds = %26
  %31 = load i32, i32* %4, align 4
  %32 = sext i32 %31 to i64
  %33 = getelementptr inbounds [100 x i32], [100 x i32]* %5, i64 0, i64 %32
  %34 = load i32, i32* %33, align 4
  %35 = icmp sge i32 %34, 60
  br i1 %35, label %36, label %98

36:                                               ; preds = %30
  %37 = load i32, i32* %4, align 4
  store i32 %37, i32* %3, align 4
  br label %38

38:                                               ; preds = %94, %36
  %39 = load i32, i32* %3, align 4
  %40 = icmp sgt i32 %39, 0
  br i1 %40, label %41, label %97

41:                                               ; preds = %38
  %42 = load i32, i32* %3, align 4
  %43 = sext i32 %42 to i64
  %44 = getelementptr inbounds [100 x i32], [100 x i32]* %5, i64 0, i64 %43
  %45 = load i32, i32* %44, align 4
  %46 = load i32, i32* %3, align 4
  %47 = sub nsw i32 %46, 1
  %48 = sext i32 %47 to i64
  %49 = getelementptr inbounds [100 x i32], [100 x i32]* %5, i64 0, i64 %48
  %50 = load i32, i32* %49, align 4
  %51 = icmp sgt i32 %45, %50
  br i1 %51, label %52, label %93

52:                                               ; preds = %41
  %53 = load i32, i32* %3, align 4
  %54 = sext i32 %53 to i64
  %55 = getelementptr inbounds [100 x i32], [100 x i32]* %5, i64 0, i64 %54
  %56 = load i32, i32* %55, align 4
  store i32 %56, i32* %2, align 4
  %57 = load i32, i32* %3, align 4
  %58 = sub nsw i32 %57, 1
  %59 = sext i32 %58 to i64
  %60 = getelementptr inbounds [100 x i32], [100 x i32]* %5, i64 0, i64 %59
  %61 = load i32, i32* %60, align 4
  %62 = load i32, i32* %3, align 4
  %63 = sext i32 %62 to i64
  %64 = getelementptr inbounds [100 x i32], [100 x i32]* %5, i64 0, i64 %63
  store i32 %61, i32* %64, align 4
  %65 = load i32, i32* %2, align 4
  %66 = load i32, i32* %3, align 4
  %67 = sub nsw i32 %66, 1
  %68 = sext i32 %67 to i64
  %69 = getelementptr inbounds [100 x i32], [100 x i32]* %5, i64 0, i64 %68
  store i32 %65, i32* %69, align 4
  %70 = getelementptr inbounds [10 x i8], [10 x i8]* %6, i64 0, i64 0
  %71 = load i32, i32* %3, align 4
  %72 = sext i32 %71 to i64
  %73 = getelementptr inbounds [100 x [10 x i8]], [100 x [10 x i8]]* %7, i64 0, i64 %72
  %74 = getelementptr inbounds [10 x i8], [10 x i8]* %73, i64 0, i64 0
  %75 = call i8* @strcpy(i8* %70, i8* %74) #3
  %76 = load i32, i32* %3, align 4
  %77 = sext i32 %76 to i64
  %78 = getelementptr inbounds [100 x [10 x i8]], [100 x [10 x i8]]* %7, i64 0, i64 %77
  %79 = getelementptr inbounds [10 x i8], [10 x i8]* %78, i64 0, i64 0
  %80 = load i32, i32* %3, align 4
  %81 = sub nsw i32 %80, 1
  %82 = sext i32 %81 to i64
  %83 = getelementptr inbounds [100 x [10 x i8]], [100 x [10 x i8]]* %7, i64 0, i64 %82
  %84 = getelementptr inbounds [10 x i8], [10 x i8]* %83, i64 0, i64 0
  %85 = call i8* @strcpy(i8* %79, i8* %84) #3
  %86 = load i32, i32* %3, align 4
  %87 = sub nsw i32 %86, 1
  %88 = sext i32 %87 to i64
  %89 = getelementptr inbounds [100 x [10 x i8]], [100 x [10 x i8]]* %7, i64 0, i64 %88
  %90 = getelementptr inbounds [10 x i8], [10 x i8]* %89, i64 0, i64 0
  %91 = getelementptr inbounds [10 x i8], [10 x i8]* %6, i64 0, i64 0
  %92 = call i8* @strcpy(i8* %90, i8* %91) #3
  br label %93

93:                                               ; preds = %52, %41
  br label %94

94:                                               ; preds = %93
  %95 = load i32, i32* %3, align 4
  %96 = add nsw i32 %95, -1
  store i32 %96, i32* %3, align 4
  br label %38

97:                                               ; preds = %38
  br label %98

98:                                               ; preds = %97, %30
  br label %99

99:                                               ; preds = %98
  %100 = load i32, i32* %4, align 4
  %101 = add nsw i32 %100, 1
  store i32 %101, i32* %4, align 4
  br label %26

102:                                              ; preds = %26
  store i32 0, i32* %4, align 4
  br label %103

103:                                              ; preds = %113, %102
  %104 = load i32, i32* %4, align 4
  %105 = load i32, i32* %1, align 4
  %106 = icmp slt i32 %104, %105
  br i1 %106, label %107, label %116

107:                                              ; preds = %103
  %108 = load i32, i32* %4, align 4
  %109 = sext i32 %108 to i64
  %110 = getelementptr inbounds [100 x [10 x i8]], [100 x [10 x i8]]* %7, i64 0, i64 %109
  %111 = getelementptr inbounds [10 x i8], [10 x i8]* %110, i64 0, i64 0
  %112 = call i32 (i8*, ...) @printf(i8* getelementptr inbounds ([4 x i8], [4 x i8]* @.str.2, i64 0, i64 0), i8* %111)
  br label %113

113:                                              ; preds = %107
  %114 = load i32, i32* %4, align 4
  %115 = add nsw i32 %114, 1
  store i32 %115, i32* %4, align 4
  br label %103

116:                                              ; preds = %103
  ret void
}

declare dso_local i32 @__isoc99_scanf(i8*, ...) #1

; Function Attrs: nounwind
declare dso_local i8* @strcpy(i8*, i8*) #2

declare dso_local i32 @printf(i8*, ...) #1


!llvm.module.flags = !{!0}
!llvm.ident = !{!1}

!0 = !{i32 1, !"wchar_size", i32 4}
!1 = !{!"clang version 10.0.0-4ubuntu1 "}
