; ModuleID = 'source-C-CXX/8/93.c'
source_filename = "source-C-CXX/8/93.c"
target datalayout = "e-m:e-p270:32:32-p271:32:32-p272:64:64-i64:64-f80:128-n8:16:32:64-S128"
target triple = "x86_64-pc-linux-gnu"

@.str = private unnamed_addr constant [3 x i8] c"%d\00", align 1
@.str.1 = private unnamed_addr constant [6 x i8] c"%s %d\00", align 1

; Function Attrs: nofree nounwind sspstrong uwtable
define dso_local void @main() local_unnamed_addr #0 {
  %1 = alloca i32, align 4
  %2 = alloca [100 x i32], align 16
  %3 = alloca [10 x i8], align 1
  %4 = alloca [100 x [10 x i8]], align 16
  %5 = bitcast i32* %1 to i8*
  call void @llvm.lifetime.start.p0i8(i64 4, i8* nonnull %5) #5
  %6 = bitcast [100 x i32]* %2 to i8*
  call void @llvm.lifetime.start.p0i8(i64 400, i8* nonnull %6) #5
  %7 = getelementptr inbounds [10 x i8], [10 x i8]* %3, i64 0, i64 0
  call void @llvm.lifetime.start.p0i8(i64 10, i8* nonnull %7) #5
  %8 = getelementptr inbounds [100 x [10 x i8]], [100 x [10 x i8]]* %4, i64 0, i64 0, i64 0
  call void @llvm.lifetime.start.p0i8(i64 1000, i8* nonnull %8) #5
  %9 = call i32 (i8*, ...) @__isoc99_scanf(i8* getelementptr inbounds ([3 x i8], [3 x i8]* @.str, i64 0, i64 0), i32* nonnull %1)
  %10 = load i32, i32* %1, align 4, !tbaa !5
  %11 = icmp sgt i32 %10, 0
  br i1 %11, label %16, label %65

12:                                               ; preds = %16
  %13 = icmp sgt i32 %22, 0
  br i1 %13, label %14, label %65

14:                                               ; preds = %12
  %15 = zext i32 %22 to i64
  br label %26

16:                                               ; preds = %0, %16
  %17 = phi i64 [ %21, %16 ], [ 0, %0 ]
  %18 = getelementptr inbounds [100 x [10 x i8]], [100 x [10 x i8]]* %4, i64 0, i64 %17, i64 0
  %19 = getelementptr inbounds [100 x i32], [100 x i32]* %2, i64 0, i64 %17
  %20 = call i32 (i8*, ...) @__isoc99_scanf(i8* getelementptr inbounds ([6 x i8], [6 x i8]* @.str.1, i64 0, i64 0), i8* nonnull %18, i32* nonnull %19)
  %21 = add nuw nsw i64 %17, 1
  %22 = load i32, i32* %1, align 4, !tbaa !5
  %23 = sext i32 %22 to i64
  %24 = icmp slt i64 %21, %23
  br i1 %24, label %16, label %12, !llvm.loop !9

25:                                               ; preds = %54
  br i1 %13, label %57, label %65

26:                                               ; preds = %14, %54
  %27 = phi i64 [ 0, %14 ], [ %55, %54 ]
  %28 = getelementptr inbounds [100 x i32], [100 x i32]* %2, i64 0, i64 %27
  %29 = load i32, i32* %28, align 4, !tbaa !5
  %30 = icmp sgt i32 %29, 59
  %31 = icmp ne i64 %27, 0
  %32 = select i1 %30, i1 %31, i1 false
  br i1 %32, label %33, label %54

33:                                               ; preds = %26, %51
  %34 = phi i32 [ %53, %51 ], [ %29, %26 ]
  %35 = phi i64 [ %50, %51 ], [ %27, %26 ]
  %36 = add i64 %35, 4294967295
  %37 = and i64 %36, 4294967295
  %38 = getelementptr inbounds [100 x i32], [100 x i32]* %2, i64 0, i64 %37
  %39 = load i32, i32* %38, align 4, !tbaa !5
  %40 = icmp sgt i32 %34, %39
  br i1 %40, label %41, label %48

41:                                               ; preds = %33
  %42 = getelementptr inbounds [100 x i32], [100 x i32]* %2, i64 0, i64 %35
  store i32 %39, i32* %42, align 4, !tbaa !5
  store i32 %34, i32* %38, align 4, !tbaa !5
  %43 = getelementptr inbounds [100 x [10 x i8]], [100 x [10 x i8]]* %4, i64 0, i64 %35, i64 0
  %44 = call i8* @strcpy(i8* noundef nonnull %7, i8* noundef nonnull %43) #5
  %45 = getelementptr inbounds [100 x [10 x i8]], [100 x [10 x i8]]* %4, i64 0, i64 %37, i64 0
  %46 = call i8* @strcpy(i8* noundef nonnull %43, i8* noundef nonnull %45) #5
  %47 = call i8* @strcpy(i8* noundef nonnull %45, i8* noundef nonnull %7) #5
  br label %48

48:                                               ; preds = %33, %41
  %49 = icmp sgt i64 %35, 1
  %50 = add nsw i64 %35, -1
  br i1 %49, label %51, label %54, !llvm.loop !11

51:                                               ; preds = %48
  %52 = getelementptr inbounds [100 x i32], [100 x i32]* %2, i64 0, i64 %50
  %53 = load i32, i32* %52, align 4, !tbaa !5
  br label %33

54:                                               ; preds = %48, %26
  %55 = add nuw nsw i64 %27, 1
  %56 = icmp eq i64 %55, %15
  br i1 %56, label %25, label %26, !llvm.loop !12

57:                                               ; preds = %25, %57
  %58 = phi i64 [ %61, %57 ], [ 0, %25 ]
  %59 = getelementptr inbounds [100 x [10 x i8]], [100 x [10 x i8]]* %4, i64 0, i64 %58, i64 0
  %60 = call i32 @puts(i8* nonnull %59)
  %61 = add nuw nsw i64 %58, 1
  %62 = load i32, i32* %1, align 4, !tbaa !5
  %63 = sext i32 %62 to i64
  %64 = icmp slt i64 %61, %63
  br i1 %64, label %57, label %65, !llvm.loop !13

65:                                               ; preds = %57, %12, %0, %25
  call void @llvm.lifetime.end.p0i8(i64 1000, i8* nonnull %8) #5
  call void @llvm.lifetime.end.p0i8(i64 10, i8* nonnull %7) #5
  call void @llvm.lifetime.end.p0i8(i64 400, i8* nonnull %6) #5
  call void @llvm.lifetime.end.p0i8(i64 4, i8* nonnull %5) #5
  ret void
}

; Function Attrs: argmemonly mustprogress nofree nosync nounwind willreturn
declare void @llvm.lifetime.start.p0i8(i64 immarg, i8* nocapture) #1

; Function Attrs: nofree nounwind
declare noundef i32 @__isoc99_scanf(i8* nocapture noundef readonly, ...) local_unnamed_addr #2

; Function Attrs: argmemonly mustprogress nofree nounwind willreturn
declare i8* @strcpy(i8* noalias returned writeonly, i8* noalias nocapture readonly) local_unnamed_addr #3

; Function Attrs: argmemonly mustprogress nofree nosync nounwind willreturn
declare void @llvm.lifetime.end.p0i8(i64 immarg, i8* nocapture) #1

; Function Attrs: nofree nounwind
declare noundef i32 @puts(i8* nocapture noundef readonly) local_unnamed_addr #4


!llvm.module.flags = !{!0, !1, !2, !3}
!llvm.ident = !{!4}

!0 = !{i32 1, !"wchar_size", i32 4}
!1 = !{i32 7, !"PIC Level", i32 2}
!2 = !{i32 7, !"PIE Level", i32 2}
!3 = !{i32 7, !"uwtable", i32 1}
!4 = !{!"clang version 13.0.0"}
!5 = !{!6, !6, i64 0}
!6 = !{!"int", !7, i64 0}
!7 = !{!"omnipotent char", !8, i64 0}
!8 = !{!"Simple C/C++ TBAA"}
!9 = distinct !{!9, !10}
!10 = !{!"llvm.loop.mustprogress"}
!11 = distinct !{!11, !10}
!12 = distinct !{!12, !10}
!13 = distinct !{!13, !10}
